target datalayout = "e-m:e-p270:32:32-p271:32:32-p272:64:64-i64:64-i128:128-f80:128-n8:16:32:64-S128"
target triple = "x86_64-pc-linux-gnu"

%"class.pxrInternal_v0_24__pxrReserved__::PcpNodeRef" = type { ptr, i64 }
%"class.pxrInternal_v0_24__pxrReserved__::UsdPrimCompositionQueryArc" = type { %"class.pxrInternal_v0_24__pxrReserved__::PcpNodeRef", %"class.pxrInternal_v0_24__pxrReserved__::PcpNodeRef", %"class.pxrInternal_v0_24__pxrReserved__::PcpNodeRef", %"class.std::shared_ptr" }
%"class.std::shared_ptr" = type { %"class.std::__shared_ptr" }
%"class.std::__shared_ptr" = type { ptr, %"class.std::__shared_count" }
%"class.std::__shared_count" = type { ptr }
%"struct.pxrInternal_v0_24__pxrReserved__::UsdPrimCompositionQuery::Filter" = type { i32, i32, i32, i32 }

; Function Attrs: mustprogress uwtable
define noundef i32 @_ZNK32pxrInternal_v0_24__pxrReserved__26UsdPrimCompositionQueryArc10GetArcTypeEv(ptr noundef nonnull align 8 dereferenceable(64) %0) #0 align 2 {
  %2 = alloca ptr, align 8
  store ptr %0, ptr %2, align 8
  %3 = load ptr, ptr %2, align 8
  %4 = getelementptr inbounds nuw %"class.pxrInternal_v0_24__pxrReserved__::UsdPrimCompositionQueryArc", ptr %3, i32 0, i32 0
  %5 = call noundef i32 @_ZNK32pxrInternal_v0_24__pxrReserved__10PcpNodeRef10GetArcTypeEv(ptr noundef nonnull align 8 dereferenceable(16) %4)
  ret i32 %5
}

; Function Attrs: mustprogress uwtable
define internal noundef zeroext i1 @_ZN32pxrInternal_v0_24__pxrReserved__L12_TestArcTypeERKNS_26UsdPrimCompositionQueryArcERKNS_23UsdPrimCompositionQuery6FilterE(ptr noundef nonnull align 8 dereferenceable(64) %0, ptr noundef nonnull align 4 dereferenceable(16) %1) #0 {
  %3 = alloca i1, align 1
  %4 = alloca ptr, align 8
  %5 = alloca ptr, align 8
  %6 = alloca i32, align 4
  store ptr %0, ptr %4, align 8
  store ptr %1, ptr %5, align 8
  store i32 0, ptr %6, align 4
  %7 = load ptr, ptr %5, align 8
  %8 = getelementptr inbounds nuw %"struct.pxrInternal_v0_24__pxrReserved__::UsdPrimCompositionQuery::Filter", ptr %7, i32 0, i32 0
  %9 = load i32, ptr %8, align 4
  switch i32 %9, label %21 [
    i32 0, label %10
    i32 1, label %11
    i32 2, label %12
    i32 3, label %13
    i32 4, label %14
    i32 5, label %15
    i32 6, label %16
    i32 7, label %17
    i32 8, label %18
    i32 9, label %19
    i32 10, label %20
  ]

10:                                               ; preds = %2
  store i1 true, ptr %3, align 1
  br label %28

11:                                               ; preds = %2
  store i32 16, ptr %6, align 4
  br label %21

12:                                               ; preds = %2
  store i32 32, ptr %6, align 4
  br label %21

13:                                               ; preds = %2
  store i32 2, ptr %6, align 4
  br label %21

14:                                               ; preds = %2
  store i32 64, ptr %6, align 4
  br label %21

15:                                               ; preds = %2
  store i32 4, ptr %6, align 4
  br label %21

16:                                               ; preds = %2
  store i32 48, ptr %6, align 4
  br label %21

17:                                               ; preds = %2
  store i32 66, ptr %6, align 4
  br label %21

18:                                               ; preds = %2
  store i32 -49, ptr %6, align 4
  br label %21

19:                                               ; preds = %2
  store i32 -67, ptr %6, align 4
  br label %21

20:                                               ; preds = %2
  store i32 -5, ptr %6, align 4
  br label %21

21:                                               ; preds = %20, %19, %18, %17, %16, %15, %14, %13, %12, %11, %2
  %22 = load i32, ptr %6, align 4
  %23 = load ptr, ptr %4, align 8
  %24 = call noundef i32 @_ZNK32pxrInternal_v0_24__pxrReserved__26UsdPrimCompositionQueryArc10GetArcTypeEv(ptr noundef nonnull align 8 dereferenceable(64) %23)
  %25 = shl i32 1, %24
  %26 = and i32 %22, %25
  %27 = icmp ne i32 %26, 0
  store i1 %27, ptr %3, align 1
  br label %28

28:                                               ; preds = %21, %10
  %29 = load i1, ptr %3, align 1
  ret i1 %29
}