; Function Attrs: mustprogress uwtable
define internal noundef zeroext i1 @_ZN32pxrInternal_v0_24__pxrReserved__L12_TestArcTypeERKNS_26UsdPrimCompositionQueryArcERKNS_23UsdPrimCompositionQuery6FilterE(ptr noundef nonnull align 8 dereferenceable(64) %0, ptr noundef nonnull readonly align 4 captures(none) dereferenceable(16) %1) #0 {
  %3 = load i32, ptr %1, align 4
  switch i32 %3, label %14 [
    i32 0, label %19
    i32 1, label %4
    i32 2, label %5
    i32 3, label %6
    i32 4, label %7
    i32 5, label %8
    i32 6, label %9
    i32 7, label %10
    i32 8, label %11
    i32 9, label %12
    i32 10, label %13
  ]

4:                                                ; preds = %2
  br label %14

5:                                                ; preds = %2
  br label %14

6:                                                ; preds = %2
  br label %14

7:                                                ; preds = %2
  br label %14

8:                                                ; preds = %2
  br label %14

9:                                                ; preds = %2
  br label %14

10:                                               ; preds = %2
  br label %14

11:                                               ; preds = %2
  br label %14

12:                                               ; preds = %2
  br label %14

13:                                               ; preds = %2
  br label %14

14:                                               ; preds = %13, %12, %11, %10, %9, %8, %7, %6, %5, %4, %2
  %.0 = phi i32 [ 0, %2 ], [ -5, %13 ], [ -67, %12 ], [ -49, %11 ], [ 66, %10 ], [ 48, %9 ], [ 4, %8 ], [ 64, %7 ], [ 2, %6 ], [ 32, %5 ], [ 16, %4 ]
  %15 = tail call noundef i32 @_ZNK32pxrInternal_v0_24__pxrReserved__10PcpNodeRef10GetArcTypeEv(ptr noundef nonnull align 8 dereferenceable(64) %0)
  %16 = shl nuw i32 1, %15
  %17 = and i32 %16, %.0
  %18 = icmp ne i32 %17, 0
  br label %19

19:                                               ; preds = %2, %14
  %.03 = phi i1 [ %18, %14 ], [ true, %2 ]
  ret i1 %.03
}